target datalayout = "e-m:e-p270:32:32-p271:32:32-p272:64:64-i64:64-i128:128-f80:128-n8:16:32:64-S128"
target triple = "x86_64-pc-linux-gnu"

; Function Attrs: inlinehint nounwind uwtable
define internal i32 @hash_string_djbxor(ptr noundef %0, i64 noundef %1) #4 {
  %3 = alloca ptr, align 8
  %4 = alloca i64, align 8
  %5 = alloca i32, align 4
  store ptr %0, ptr %3, align 8
  store i64 %1, ptr %4, align 8
  call void @llvm.lifetime.start.p0(i64 4, ptr %5) #9
  store i32 5381, ptr %5, align 4
  br label %6

6:                                                ; preds = %10, %2
  %7 = load i64, ptr %4, align 8
  %8 = add i64 %7, -1
  store i64 %8, ptr %4, align 8
  %9 = icmp ne i64 %7, 0
  br i1 %9, label %10, label %20

10:                                               ; preds = %6
  %11 = load i32, ptr %5, align 4
  %12 = shl i32 %11, 5
  %13 = load i32, ptr %5, align 4
  %14 = add i32 %12, %13
  %15 = load ptr, ptr %3, align 8
  %16 = getelementptr inbounds nuw i8, ptr %15, i32 1
  store ptr %16, ptr %3, align 8
  %17 = load i8, ptr %15, align 1
  %18 = sext i8 %17 to i32
  %19 = xor i32 %14, %18
  store i32 %19, ptr %5, align 4
  br label %6, !llvm.loop !8

20:                                               ; preds = %6
  %21 = load i32, ptr %5, align 4
  call void @llvm.lifetime.end.p0(i64 4, ptr %5) #9
  ret i32 %21
}

; Function Attrs: nounwind uwtable
define hidden i32 @SDL_HashString(ptr noundef %0, ptr noundef %1) #0 {
  %3 = alloca ptr, align 8
  %4 = alloca ptr, align 8
  %5 = alloca ptr, align 8
  store ptr %0, ptr %3, align 8
  store ptr %1, ptr %4, align 8
  call void @llvm.lifetime.start.p0(i64 8, ptr %5) #9
  %6 = load ptr, ptr %4, align 8
  store ptr %6, ptr %5, align 8
  %7 = load ptr, ptr %5, align 8
  %8 = load ptr, ptr %5, align 8
  %9 = call i64 @SDL_strlen_REAL(ptr noundef %8)
  %10 = call i32 @hash_string_djbxor(ptr noundef %7, i64 noundef %9)
  call void @llvm.lifetime.end.p0(i64 8, ptr %5) #9
  ret i32 %10
}