; Function Attrs: nounwind uwtable
define hidden i32 @SDL_HashString(ptr noundef readnone captures(none) %0, ptr noundef %1) local_unnamed_addr #0 {
  %3 = tail call i64 @SDL_strlen_REAL(ptr noundef %1) #10
  %.not6.i = icmp eq i64 %3, 0
  br i1 %.not6.i, label %hash_string_djbxor.exit, label %.lr.ph.i

.lr.ph.i:                                         ; preds = %2, %.lr.ph.i
  %.09.i = phi i32 [ %9, %.lr.ph.i ], [ 5381, %2 ]
  %.048.i = phi i64 [ %4, %.lr.ph.i ], [ %3, %2 ]
  %.057.i = phi ptr [ %6, %.lr.ph.i ], [ %1, %2 ]
  %4 = add i64 %.048.i, -1
  %5 = mul i32 %.09.i, 33
  %6 = getelementptr inbounds nuw i8, ptr %.057.i, i64 1
  %7 = load i8, ptr %.057.i, align 1
  %8 = sext i8 %7 to i32
  %9 = xor i32 %5, %8
  %.not.i = icmp eq i64 %4, 0
  br i1 %.not.i, label %hash_string_djbxor.exit, label %.lr.ph.i, !llvm.loop !7

hash_string_djbxor.exit:                          ; preds = %.lr.ph.i, %2
  %.0.lcssa.i = phi i32 [ 5381, %2 ], [ %9, %.lr.ph.i ]
  ret i32 %.0.lcssa.i
}